Certificate:
    Data:
        Version: 3 (0x2)
        Serial Number:
            88:c6:4d:e1:50:65:22:c2:d2:55:35:a3:f7:7b:48:cd
    Signature Algorithm: sha256WithRSAEncryption
        Issuer: CN=Sunjin
        Validity
            Not Before: Feb 16 07:40:44 2018 GMT
            Not After : Feb 14 07:40:44 2028 GMT
        Subject: CN=sunjin.local
        Subject Public Key Info:
            Public Key Algorithm: rsaEncryption
                Public-Key: (2048 bit)
                Modulus:
                    00:c1:fe:64:7d:24:61:8e:c5:04:54:de:f5:9e:d8:
                    73:58:43:ba:f9:4d:4f:30:ed:16:f7:8c:b8:32:19:
                    a0:63:87:cc:8d:ad:9b:a9:3f:fe:c2:19:85:b5:f2:
                    18:c4:6a:c5:5a:4f:82:43:68:5e:e5:11:f6:90:98:
                    71:27:75:a1:02:96:67:4f:ad:41:ab:31:c8:ba:fc:
                    b0:79:48:25:04:0b:26:e7:25:c6:22:df:39:4d:07:
                    90:bc:22:6c:fd:2d:e4:83:51:37:21:31:9c:67:7f:
                    bc:25:51:d2:6a:7c:e9:a2:93:64:eb:1a:2e:73:82:
                    0d:a3:5c:a0:61:ed:21:b6:6b:cf:bb:55:da:57:9c:
                    5d:9a:25:c0:c2:0b:cd:17:41:ac:b9:3b:2a:f2:2a:
                    6e:b0:c4:6f:3a:05:b4:ee:f1:80:ff:e4:bd:b3:67:
                    eb:58:41:fd:e3:5c:71:c5:0f:dc:a6:81:0a:e5:3e:
                    a5:f7:99:06:65:6c:2a:59:f9:f8:84:49:3e:0e:7c:
                    8b:66:b0:0c:54:da:c4:f4:72:61:c7:ae:17:ee:d2:
                    b9:23:b7:cd:fa:5f:ce:4b:d6:5e:5b:7b:3b:fd:63:
                    50:d7:6a:b3:77:5b:37:74:6c:b4:96:b2:9e:ba:e2:
                    09:59:b7:f0:a0:6f:57:03:f7:3e:35:94:21:1d:b6:
                    2f:b5
                Exponent: 65537 (0x10001)
        X509v3 extensions:
            X509v3 Basic Constraints: 
                CA:FALSE
            X509v3 Subject Key Identifier: 
                49:3F:67:E8:2A:5F:E4:8C:71:03:CD:05:BC:88:C5:63:A3:3E:7D:7A
            X509v3 Authority Key Identifier: 
                keyid:22:D3:F0:B7:07:B4:13:E3:44:49:F8:0A:6F:23:83:D0:A4:4E:5B:33
                DirName:/CN=Sunjin
                serial:FE:CB:61:31:82:FA:BF:12

            X509v3 Extended Key Usage: 
                TLS Web Server Authentication
            X509v3 Key Usage: 
                Digital Signature, Key Encipherment
            X509v3 Subject Alternative Name: 
                DNS:sunjin.local
    Signature Algorithm: sha256WithRSAEncryption
         a1:7b:dd:d1:8b:e6:27:fb:d3:05:c9:54:79:f3:08:b3:2c:a2:
         ae:ce:e2:37:64:c2:0f:de:93:7e:59:22:72:be:7d:55:49:2e:
         44:05:54:37:2a:be:a8:66:95:b1:23:8b:4f:f3:83:01:c7:91:
         f1:a1:3f:a5:5c:0e:79:4e:1f:40:62:e4:0f:4b:b4:e5:4d:57:
         26:08:f3:3a:a2:31:d5:7b:fe:7f:a6:ea:8d:7a:c0:30:fa:cc:
         f1:13:9c:5a:92:c9:11:5c:68:db:e6:91:4f:6c:bd:04:0c:8e:
         64:ff:e2:e0:1f:50:e9:31:2b:c7:4f:a8:0d:b2:53:48:10:ad:
         3b:26:ac:f6:03:cc:f5:7a:e2:a4:88:d6:9b:83:42:02:bb:fb:
         97:b0:a2:80:fc:20:1a:06:60:47:9a:9c:35:1d:02:c7:66:44:
         d2:cf:d1:7d:d2:de:c4:6e:f8:cc:55:d1:f7:37:5e:f5:06:c6:
         a9:94:22:0e:83:58:db:a3:df:c1:ad:98:bb:57:87:38:25:f8:
         9e:1c:b7:8a:a8:2b:a6:d2:6c:70:c9:21:04:ab:15:61:3c:db:
         5c:a1:98:8e:eb:9e:80:63:ce:d1:9f:84:5c:4b:3a:4c:25:44:
         9b:6f:aa:a8:4f:5f:4e:4c:a6:03:00:c1:08:c7:b4:57:60:eb:
         e7:c1:6d:ad
-----BEGIN CERTIFICATE-----
MIIDXzCCAkegAwIBAgIRAIjGTeFQZSLC0lU1o/d7SM0wDQYJKoZIhvcNAQELBQAw
ETEPMA0GA1UEAwwGU3VuamluMB4XDTE4MDIxNjA3NDA0NFoXDTI4MDIxNDA3NDA0
NFowFzEVMBMGA1UEAwwMc3VuamluLmxvY2FsMIIBIjANBgkqhkiG9w0BAQEFAAOC
AQ8AMIIBCgKCAQEAwf5kfSRhjsUEVN71nthzWEO6+U1PMO0W94y4MhmgY4fMja2b
qT/+whmFtfIYxGrFWk+CQ2he5RH2kJhxJ3WhApZnT61BqzHIuvyweUglBAsm5yXG
It85TQeQvCJs/S3kg1E3ITGcZ3+8JVHSanzpopNk6xouc4INo1ygYe0htmvPu1Xa
V5xdmiXAwgvNF0GsuTsq8ipusMRvOgW07vGA/+S9s2frWEH941xxxQ/cpoEK5T6l
95kGZWwqWfn4hEk+DnyLZrAMVNrE9HJhx64X7tK5I7fN+l/OS9ZeW3s7/WNQ12qz
d1s3dGy0lrKeuuIJWbfwoG9XA/c+NZQhHbYvtQIDAQABo4GrMIGoMAkGA1UdEwQC
MAAwHQYDVR0OBBYEFEk/Z+gqX+SMcQPNBbyIxWOjPn16MEEGA1UdIwQ6MDiAFCLT
8LcHtBPjREn4Cm8jg9CkTlszoRWkEzARMQ8wDQYDVQQDDAZTdW5qaW6CCQD+y2Ex
gvq/EjATBgNVHSUEDDAKBggrBgEFBQcDATALBgNVHQ8EBAMCBaAwFwYDVR0RBBAw
DoIMc3VuamluLmxvY2FsMA0GCSqGSIb3DQEBCwUAA4IBAQChe93Ri+Yn+9MFyVR5
8wizLKKuzuI3ZMIP3pN+WSJyvn1VSS5EBVQ3Kr6oZpWxI4tP84MBx5HxoT+lXA55
Th9AYuQPS7TlTVcmCPM6ojHVe/5/puqNesAw+szxE5xakskRXGjb5pFPbL0EDI5k
/+LgH1DpMSvHT6gNslNIEK07Jqz2A8z1euKkiNabg0ICu/uXsKKA/CAaBmBHmpw1
HQLHZkTSz9F90t7EbvjMVdH3N171BsaplCIOg1jbo9/BrZi7V4c4JfieHLeKqCum
0mxwySEEqxVhPNtcoZiO656AY87Rn4RcSzpMJUSbb6qoT19OTKYDAMEIx7RXYOvn
wW2t
-----END CERTIFICATE-----
