Certificate:
    Data:
        Version: 3 (0x2)
        Serial Number:
            aa:a6:b1:7c:62:ff:1e:9d:1e:55:08:c1:b2:a5:32:0e
    Signature Algorithm: sha256WithRSAEncryption
        Issuer: CN=Sunjin
        Validity
            Not Before: Feb 16 07:45:43 2018 GMT
            Not After : Feb 14 07:45:43 2028 GMT
        Subject: CN=client0
        Subject Public Key Info:
            Public Key Algorithm: rsaEncryption
                Public-Key: (2048 bit)
                Modulus:
                    00:cc:5e:7d:2b:8e:64:f6:03:3b:97:03:2a:d4:a9:
                    5b:cd:44:33:3a:b9:a6:c6:f0:08:05:d5:be:74:c4:
                    22:d1:d8:33:ab:17:7e:22:51:64:c2:3c:87:85:89:
                    47:1c:4b:e4:a7:da:93:22:b0:9f:61:07:b0:b7:dc:
                    2f:de:4c:79:cc:79:f8:d0:fd:66:4e:8b:c4:f7:37:
                    f3:8b:c0:a9:c3:0e:f3:8a:2d:4b:63:49:54:2c:59:
                    65:27:ef:01:af:46:01:9c:af:97:45:95:c5:30:e1:
                    be:12:af:54:77:99:95:f5:7f:45:07:e8:66:95:16:
                    fe:b6:de:cc:cc:d2:8d:fb:99:c9:b7:2d:4a:a6:a8:
                    62:f4:7f:ea:f1:c7:6a:1a:ac:77:17:2c:2b:9e:a7:
                    27:58:2c:2b:8c:a0:0f:b5:9a:46:11:7c:77:cd:98:
                    4c:90:42:d9:b2:e9:cf:57:56:4d:52:97:af:f1:b9:
                    fc:bf:17:56:ae:f7:89:ee:81:62:60:e3:ee:a3:76:
                    88:8f:a8:08:68:e5:4b:75:0d:01:23:65:44:82:6b:
                    88:d1:44:34:9e:05:f2:ad:01:39:94:d3:e9:32:ed:
                    46:87:c1:6b:21:9f:85:80:eb:52:68:30:8e:1c:d7:
                    5a:79:af:92:3e:3b:a4:5b:0e:25:2f:30:57:11:a7:
                    e9:e1
                Exponent: 65537 (0x10001)
        X509v3 extensions:
            X509v3 Basic Constraints: 
                CA:FALSE
            X509v3 Subject Key Identifier: 
                8C:90:CC:A3:72:C9:47:85:A7:25:C5:38:8C:AB:02:DE:14:C5:49:4E
            X509v3 Authority Key Identifier: 
                keyid:22:D3:F0:B7:07:B4:13:E3:44:49:F8:0A:6F:23:83:D0:A4:4E:5B:33
                DirName:/CN=Sunjin
                serial:FE:CB:61:31:82:FA:BF:12

            X509v3 Extended Key Usage: 
                TLS Web Client Authentication
            X509v3 Key Usage: 
                Digital Signature
    Signature Algorithm: sha256WithRSAEncryption
         29:7b:b3:a1:63:7a:ff:78:ec:09:99:9d:1e:a1:2f:58:89:3f:
         63:17:c7:d0:11:16:2f:85:11:43:ce:d6:bf:f6:48:18:fc:e8:
         48:39:0f:f9:5b:34:a9:37:d4:b3:f4:62:3c:f9:f0:f1:bd:cc:
         ff:59:fc:07:5f:1b:86:08:31:6b:ed:0f:17:fa:fc:bb:cb:b6:
         b7:ff:ab:c2:d0:60:c8:32:d0:53:0d:bf:6d:1d:41:30:83:7d:
         bf:dc:77:55:f9:82:ae:06:5d:f5:0b:26:d4:79:c9:b3:41:a3:
         44:96:34:e6:23:d2:d4:37:0c:f6:3a:30:60:a2:1e:e0:65:1a:
         41:c9:28:1a:80:54:0f:02:41:95:85:a1:9b:38:b4:53:71:27:
         12:07:1e:45:bb:cb:77:09:4c:c5:71:34:1c:4d:b3:81:03:2b:
         61:75:ef:f6:cd:01:61:40:4c:8b:04:43:d5:56:b0:8b:24:eb:
         19:7d:36:ab:5a:8a:ba:bb:5b:73:51:07:7a:6a:62:a1:6f:c7:
         0c:68:f0:1f:41:d0:d0:84:65:b0:7d:04:70:e8:55:10:db:6d:
         50:f7:2a:cf:e9:dc:3b:f8:12:4e:e8:08:df:ca:7d:3d:84:75:
         87:2f:39:92:a3:55:4d:d7:95:23:4f:e4:3a:21:1e:13:71:85:
         81:e6:01:ee
-----BEGIN CERTIFICATE-----
MIIDQTCCAimgAwIBAgIRAKqmsXxi/x6dHlUIwbKlMg4wDQYJKoZIhvcNAQELBQAw
ETEPMA0GA1UEAwwGU3VuamluMB4XDTE4MDIxNjA3NDU0M1oXDTI4MDIxNDA3NDU0
M1owEjEQMA4GA1UEAwwHY2xpZW50MDCCASIwDQYJKoZIhvcNAQEBBQADggEPADCC
AQoCggEBAMxefSuOZPYDO5cDKtSpW81EMzq5psbwCAXVvnTEItHYM6sXfiJRZMI8
h4WJRxxL5KfakyKwn2EHsLfcL95Mecx5+ND9Zk6LxPc384vAqcMO84otS2NJVCxZ
ZSfvAa9GAZyvl0WVxTDhvhKvVHeZlfV/RQfoZpUW/rbezMzSjfuZybctSqaoYvR/
6vHHahqsdxcsK56nJ1gsK4ygD7WaRhF8d82YTJBC2bLpz1dWTVKXr/G5/L8XVq73
ie6BYmDj7qN2iI+oCGjlS3UNASNlRIJriNFENJ4F8q0BOZTT6TLtRofBayGfhYDr
UmgwjhzXWnmvkj47pFsOJS8wVxGn6eECAwEAAaOBkjCBjzAJBgNVHRMEAjAAMB0G
A1UdDgQWBBSMkMyjcslHhaclxTiMqwLeFMVJTjBBBgNVHSMEOjA4gBQi0/C3B7QT
40RJ+ApvI4PQpE5bM6EVpBMwETEPMA0GA1UEAwwGU3VuamluggkA/sthMYL6vxIw
EwYDVR0lBAwwCgYIKwYBBQUHAwIwCwYDVR0PBAQDAgeAMA0GCSqGSIb3DQEBCwUA
A4IBAQApe7OhY3r/eOwJmZ0eoS9YiT9jF8fQERYvhRFDzta/9kgY/OhIOQ/5WzSp
N9Sz9GI8+fDxvcz/WfwHXxuGCDFr7Q8X+vy7y7a3/6vC0GDIMtBTDb9tHUEwg32/
3HdV+YKuBl31CybUecmzQaNEljTmI9LUNwz2OjBgoh7gZRpBySgagFQPAkGVhaGb
OLRTcScSBx5Fu8t3CUzFcTQcTbOBAythde/2zQFhQEyLBEPVVrCLJOsZfTarWoq6
u1tzUQd6amKhb8cMaPAfQdDQhGWwfQRw6FUQ221Q9yrP6dw7+BJO6Ajfyn09hHWH
LzmSo1VN15UjT+Q6IR4TcYWB5gHu
-----END CERTIFICATE-----
